; Function Attrs: mustprogress uwtable
define dso_local noundef i32 @_ZN20cmCTestScriptHandler17CheckOutSourceDirEv(ptr noundef nonnull align 8 dereferenceable(824) %0) local_unnamed_addr #3 align 2 personality ptr @__gxx_personality_v0 {
  %2 = alloca %"class.std::__cxx11::basic_string", align 8
  %3 = alloca i32, align 4
  %4 = alloca %"class.std::__cxx11::basic_ostringstream", align 8
  %5 = alloca %"class.std::__cxx11::basic_string", align 8
  %6 = alloca %"class.std::__cxx11::basic_string", align 8
  call void @_ZNSt7__cxx1112basic_stringIcSt11char_traitsIcESaIcEEC1Ev(ptr noundef nonnull align 8 dereferenceable(32) %2) #20
  %7 = getelementptr inbounds i8, ptr %0, i64 360
  %8 = invoke noundef zeroext i1 @_ZN5cmsys11SystemTools10FileExistsERKNSt7__cxx1112basic_stringIcSt11char_traitsIcESaIcEEE(ptr noundef nonnull align 8 dereferenceable(32) %7)
          to label %9 unwind label %37

9:                                                ; preds = %1
  br i1 %8, label %46, label %10

10:                                               ; preds = %9
  %11 = getelementptr inbounds i8, ptr %0, i64 520
  %12 = call noundef zeroext i1 @_ZNKSt7__cxx1112basic_stringIcSt11char_traitsIcESaIcEE5emptyEv(ptr noundef nonnull align 8 dereferenceable(32) %11) #20
  br i1 %12, label %46, label %13

13:                                               ; preds = %10
  call void @_ZNSt7__cxx1112basic_stringIcSt11char_traitsIcESaIcEE5clearEv(ptr noundef nonnull align 8 dereferenceable(32) %2) #20
  invoke void @_ZNSt7__cxx1119basic_ostringstreamIcSt11char_traitsIcESaIcEEC1Ev(ptr noundef nonnull align 8 dereferenceable(112) %4)
          to label %14 unwind label %37

14:                                               ; preds = %13
  %15 = invoke noundef nonnull align 8 dereferenceable(8) ptr @_ZStlsISt11char_traitsIcEERSt13basic_ostreamIcT_ES5_PKc(ptr noundef nonnull align 8 dereferenceable(8) %4, ptr noundef nonnull @.str.62)
          to label %16 unwind label %39

16:                                               ; preds = %14
  %17 = invoke noundef nonnull align 8 dereferenceable(8) ptr @_ZStlsIcSt11char_traitsIcESaIcEERSt13basic_ostreamIT_T0_ES7_RKNSt7__cxx1112basic_stringIS4_S5_T1_EE(ptr noundef nonnull align 8 dereferenceable(8) %15, ptr noundef nonnull align 8 dereferenceable(32) %11)
          to label %18 unwind label %39

18:                                               ; preds = %16
  %19 = invoke noundef nonnull align 8 dereferenceable(8) ptr @_ZNSolsEPFRSoS_E(ptr noundef nonnull align 8 dereferenceable(8) %17, ptr noundef nonnull @_ZSt4endlIcSt11char_traitsIcEERSt13basic_ostreamIT_T0_ES6_)
          to label %20 unwind label %39

20:                                               ; preds = %18
  %21 = getelementptr inbounds i8, ptr %0, i64 32
  %22 = load ptr, ptr %21, align 8
  invoke void @_ZNKSt7__cxx1119basic_ostringstreamIcSt11char_traitsIcESaIcEE3strEv(ptr dead_on_unwind nonnull writable sret(%"class.std::__cxx11::basic_string") align 8 %5, ptr noundef nonnull align 8 dereferenceable(112) %4)
          to label %23 unwind label %39

23:                                               ; preds = %20
  %24 = call noundef ptr @_ZNKSt7__cxx1112basic_stringIcSt11char_traitsIcESaIcEE5c_strEv(ptr noundef nonnull align 8 dereferenceable(32) %5) #20
  invoke void @_ZN7cmCTest3LogEiPKciS1_b(ptr noundef nonnull align 8 dereferenceable(8) %22, i32 noundef 5, ptr noundef nonnull @.str.5, i32 noundef 574, ptr noundef %24, i1 noundef zeroext false)
          to label %25 unwind label %41

25:                                               ; preds = %23
  call void @_ZNSt7__cxx1112basic_stringIcSt11char_traitsIcESaIcEED1Ev(ptr noundef nonnull align 8 dereferenceable(32) %5) #20
  call void @_ZNSt7__cxx1119basic_ostringstreamIcSt11char_traitsIcESaIcEED1Ev(ptr noundef nonnull align 8 dereferenceable(112) %4) #20
  %26 = getelementptr inbounds i8, ptr %0, i64 488
  %27 = call noundef ptr @_ZNKSt7__cxx1112basic_stringIcSt11char_traitsIcESaIcEE5c_strEv(ptr noundef nonnull align 8 dereferenceable(32) %26) #20
  %28 = getelementptr inbounds i8, ptr %0, i64 24
  %29 = load i32, ptr %28, align 8
  %30 = invoke noundef zeroext i1 @_ZN13cmSystemTools16RunSingleCommandERKNSt7__cxx1112basic_stringIcSt11char_traitsIcESaIcEEEPS5_S8_PiPKcNS_12OutputOptionENSt6chrono8durationIdSt5ratioILl1ELl1EEEE(ptr noundef nonnull align 8 dereferenceable(32) %11, ptr noundef nonnull %2, ptr noundef nonnull %2, ptr noundef nonnull %3, ptr noundef %27, i32 noundef %29, double 0.000000e+00)
          to label %31 unwind label %37

31:                                               ; preds = %25
  %32 = load i32, ptr %3, align 4
  %33 = icmp eq i32 %32, 0
  %or.cond.not = select i1 %30, i1 %33, i1 false
  br i1 %or.cond.not, label %46, label %34

34:                                               ; preds = %31
  invoke void @_ZStplIcSt11char_traitsIcESaIcEENSt7__cxx1112basic_stringIT_T0_T1_EEPKS5_RKS8_(ptr dead_on_unwind nonnull writable sret(%"class.std::__cxx11::basic_string") align 8 %6, ptr noundef nonnull @.str.63, ptr noundef nonnull align 8 dereferenceable(32) %2)
          to label %35 unwind label %37

35:                                               ; preds = %34
  invoke void @_ZN13cmSystemTools5ErrorERKNSt7__cxx1112basic_stringIcSt11char_traitsIcESaIcEEE(ptr noundef nonnull align 8 dereferenceable(32) %6)
          to label %36 unwind label %44

36:                                               ; preds = %35
  call void @_ZNSt7__cxx1112basic_stringIcSt11char_traitsIcESaIcEED1Ev(ptr noundef nonnull align 8 dereferenceable(32) %6) #20
  br label %46

37:                                               ; preds = %34, %25, %13, %1
  %38 = landingpad { ptr, i32 }
          cleanup
  br label %47

39:                                               ; preds = %20, %18, %16, %14
  %40 = landingpad { ptr, i32 }
          cleanup
  br label %43

41:                                               ; preds = %23
  %42 = landingpad { ptr, i32 }
          cleanup
  call void @_ZNSt7__cxx1112basic_stringIcSt11char_traitsIcESaIcEED1Ev(ptr noundef nonnull align 8 dereferenceable(32) %5) #20
  br label %43

43:                                               ; preds = %41, %39
  %.pn = phi { ptr, i32 } [ %42, %41 ], [ %40, %39 ]
  call void @_ZNSt7__cxx1119basic_ostringstreamIcSt11char_traitsIcESaIcEED1Ev(ptr noundef nonnull align 8 dereferenceable(112) %4) #20
  br label %47

44:                                               ; preds = %35
  %45 = landingpad { ptr, i32 }
          cleanup
  call void @_ZNSt7__cxx1112basic_stringIcSt11char_traitsIcESaIcEED1Ev(ptr noundef nonnull align 8 dereferenceable(32) %6) #20
  br label %47

46:                                               ; preds = %9, %10, %31, %36
  %.0 = phi i32 [ 6, %36 ], [ 0, %31 ], [ 0, %10 ], [ 0, %9 ]
  call void @_ZNSt7__cxx1112basic_stringIcSt11char_traitsIcESaIcEED1Ev(ptr noundef nonnull align 8 dereferenceable(32) %2) #20
  ret i32 %.0

47:                                               ; preds = %44, %43, %37
  %.pn10 = phi { ptr, i32 } [ %45, %44 ], [ %38, %37 ], [ %.pn, %43 ]
  call void @_ZNSt7__cxx1112basic_stringIcSt11char_traitsIcESaIcEED1Ev(ptr noundef nonnull align 8 dereferenceable(32) %2) #20
  resume { ptr, i32 } %.pn10
}